target datalayout = "e-m:e-p270:32:32-p271:32:32-p272:64:64-i64:64-i128:128-f80:128-n8:16:32:64-S128"
target triple = "x86_64-pc-linux-gnu"

%struct.ic_env_s = type { ptr, ptr, ptr, ptr, ptr, ptr, ptr, ptr, ptr, ptr, ptr, ptr, ptr, i8, i8, i8, i8, i8, i8, i8, i8, i8, i8, i8, i8, i8, i64 }
%struct.history_s = type { i64, i64, ptr, ptr, ptr, i8 }

@rpenv = internal global ptr null, align 8

; Function Attrs: nounwind uwtable
define internal zeroext i1 @history_enable_duplicates(ptr noundef %0, i1 noundef zeroext %1) #0 {
  %3 = alloca ptr, align 8
  %4 = alloca i8, align 1
  %5 = alloca i8, align 1
  store ptr %0, ptr %3, align 8, !tbaa !152
  %6 = zext i1 %1 to i8
  store i8 %6, ptr %4, align 1, !tbaa !132
  call void @llvm.lifetime.start.p0(i64 1, ptr %5) #13
  %7 = load ptr, ptr %3, align 8, !tbaa !152
  %8 = getelementptr inbounds nuw %struct.history_s, ptr %7, i32 0, i32 5
  %9 = load i8, ptr %8, align 8, !tbaa !153, !range !124, !noundef !125
  %10 = trunc i8 %9 to i1
  %11 = zext i1 %10 to i8
  store i8 %11, ptr %5, align 1, !tbaa !132
  %12 = load i8, ptr %4, align 1, !tbaa !132, !range !124, !noundef !125
  %13 = trunc i8 %12 to i1
  %14 = load ptr, ptr %3, align 8, !tbaa !152
  %15 = getelementptr inbounds nuw %struct.history_s, ptr %14, i32 0, i32 5
  %16 = zext i1 %13 to i8
  store i8 %16, ptr %15, align 8, !tbaa !153
  %17 = load i8, ptr %5, align 1, !tbaa !132, !range !124, !noundef !125
  %18 = trunc i8 %17 to i1
  call void @llvm.lifetime.end.p0(i64 1, ptr %5) #13
  ret i1 %18
}

; Function Attrs: nounwind uwtable
define internal ptr @ic_get_env() #0 {
  %1 = load ptr, ptr @rpenv, align 8, !tbaa !65
  %2 = icmp eq ptr %1, null
  br i1 %2, label %3, label %10

3:                                                ; preds = %0
  %4 = call ptr @ic_env_create(ptr noundef null, ptr noundef null, ptr noundef null)
  store ptr %4, ptr @rpenv, align 8, !tbaa !65
  %5 = load ptr, ptr @rpenv, align 8, !tbaa !65
  %6 = icmp ne ptr %5, null
  br i1 %6, label %7, label %9

7:                                                ; preds = %3
  %8 = call i32 @atexit(ptr noundef @ic_atexit) #13
  br label %9

9:                                                ; preds = %7, %3
  br label %10

10:                                               ; preds = %9, %0
  %11 = load ptr, ptr @rpenv, align 8, !tbaa !65
  ret ptr %11
}

; Function Attrs: nounwind uwtable
define dso_local zeroext i1 @ic_enable_history_duplicates(i1 noundef zeroext %0) #0 {
  %2 = alloca i1, align 1
  %3 = alloca i8, align 1
  %4 = alloca ptr, align 8
  %5 = alloca i32, align 4
  %6 = zext i1 %0 to i8
  store i8 %6, ptr %3, align 1, !tbaa !132
  call void @llvm.lifetime.start.p0(i64 8, ptr %4) #13
  %7 = call ptr @ic_get_env()
  store ptr %7, ptr %4, align 8, !tbaa !65
  %8 = load ptr, ptr %4, align 8, !tbaa !65
  %9 = icmp eq ptr %8, null
  br i1 %9, label %10, label %11

10:                                               ; preds = %1
  store i1 false, ptr %2, align 1
  store i32 1, ptr %5, align 4
  br label %18

11:                                               ; preds = %1
  %12 = load ptr, ptr %4, align 8, !tbaa !65
  %13 = getelementptr inbounds nuw %struct.ic_env_s, ptr %12, i32 0, i32 5
  %14 = load ptr, ptr %13, align 8, !tbaa !151
  %15 = load i8, ptr %3, align 1, !tbaa !132, !range !124, !noundef !125
  %16 = trunc i8 %15 to i1
  %17 = call zeroext i1 @history_enable_duplicates(ptr noundef %14, i1 noundef zeroext %16)
  store i1 %17, ptr %2, align 1
  store i32 1, ptr %5, align 4
  br label %18

18:                                               ; preds = %11, %10
  call void @llvm.lifetime.end.p0(i64 8, ptr %4) #13
  %19 = load i1, ptr %2, align 1
  ret i1 %19
}